target datalayout = "e-m:e-p270:32:32-p271:32:32-p272:64:64-i64:64-i128:128-f80:128-n8:16:32:64-S128"
target triple = "x86_64-pc-linux-gnu"

%struct.AVFilterContext = type { ptr, ptr, ptr, ptr, ptr, i32, ptr, ptr, i32, ptr, ptr, i32, i32, ptr, ptr, ptr, ptr, i32, ptr, i32, i32 }
%struct.ChorusContext = type { ptr, float, float, ptr, ptr, ptr, ptr, ptr, ptr, ptr, ptr, ptr, ptr, ptr, ptr, ptr, i32, i32, i32, i32, i32, i64 }

; Function Attrs: cold nounwind optsize uwtable
define internal void @uninit(ptr noundef %0) #0 {
  %2 = alloca ptr, align 8
  %3 = alloca ptr, align 8
  %4 = alloca i32, align 4
  store ptr %0, ptr %2, align 8, !tbaa !4
  call void @llvm.lifetime.start.p0(i64 8, ptr %3) #7
  %5 = load ptr, ptr %2, align 8, !tbaa !4
  %6 = getelementptr inbounds nuw %struct.AVFilterContext, ptr %5, i32 0, i32 9
  %7 = load ptr, ptr %6, align 8, !tbaa !9
  store ptr %7, ptr %3, align 8, !tbaa !22
  call void @llvm.lifetime.start.p0(i64 4, ptr %4) #7
  %8 = load ptr, ptr %3, align 8, !tbaa !22
  %9 = getelementptr inbounds nuw %struct.ChorusContext, ptr %8, i32 0, i32 7
  call void @av_freep(ptr noundef %9)
  %10 = load ptr, ptr %3, align 8, !tbaa !22
  %11 = getelementptr inbounds nuw %struct.ChorusContext, ptr %10, i32 0, i32 8
  call void @av_freep(ptr noundef %11)
  %12 = load ptr, ptr %3, align 8, !tbaa !22
  %13 = getelementptr inbounds nuw %struct.ChorusContext, ptr %12, i32 0, i32 9
  call void @av_freep(ptr noundef %13)
  %14 = load ptr, ptr %3, align 8, !tbaa !22
  %15 = getelementptr inbounds nuw %struct.ChorusContext, ptr %14, i32 0, i32 10
  call void @av_freep(ptr noundef %15)
  %16 = load ptr, ptr %3, align 8, !tbaa !22
  %17 = getelementptr inbounds nuw %struct.ChorusContext, ptr %16, i32 0, i32 11
  %18 = load ptr, ptr %17, align 8, !tbaa !44
  %19 = icmp ne ptr %18, null
  br i1 %19, label %20, label %25

20:                                               ; preds = %1
  %21 = load ptr, ptr %3, align 8, !tbaa !22
  %22 = getelementptr inbounds nuw %struct.ChorusContext, ptr %21, i32 0, i32 11
  %23 = load ptr, ptr %22, align 8, !tbaa !44
  %24 = getelementptr inbounds ptr, ptr %23, i64 0
  call void @av_freep(ptr noundef %24)
  br label %25

25:                                               ; preds = %20, %1
  %26 = load ptr, ptr %3, align 8, !tbaa !22
  %27 = getelementptr inbounds nuw %struct.ChorusContext, ptr %26, i32 0, i32 11
  call void @av_freep(ptr noundef %27)
  %28 = load ptr, ptr %3, align 8, !tbaa !22
  %29 = getelementptr inbounds nuw %struct.ChorusContext, ptr %28, i32 0, i32 12
  %30 = load ptr, ptr %29, align 8, !tbaa !45
  %31 = icmp ne ptr %30, null
  br i1 %31, label %32, label %50

32:                                               ; preds = %25
  store i32 0, ptr %4, align 4, !tbaa !36
  br label %33

33:                                               ; preds = %46, %32
  %34 = load i32, ptr %4, align 4, !tbaa !36
  %35 = load ptr, ptr %3, align 8, !tbaa !22
  %36 = getelementptr inbounds nuw %struct.ChorusContext, ptr %35, i32 0, i32 18
  %37 = load i32, ptr %36, align 8, !tbaa !46
  %38 = icmp slt i32 %34, %37
  br i1 %38, label %39, label %49

39:                                               ; preds = %33
  %40 = load ptr, ptr %3, align 8, !tbaa !22
  %41 = getelementptr inbounds nuw %struct.ChorusContext, ptr %40, i32 0, i32 12
  %42 = load ptr, ptr %41, align 8, !tbaa !45
  %43 = load i32, ptr %4, align 4, !tbaa !36
  %44 = sext i32 %43 to i64
  %45 = getelementptr inbounds ptr, ptr %42, i64 %44
  call void @av_freep(ptr noundef %45)
  br label %46

46:                                               ; preds = %39
  %47 = load i32, ptr %4, align 4, !tbaa !36
  %48 = add nsw i32 %47, 1
  store i32 %48, ptr %4, align 4, !tbaa !36
  br label %33, !llvm.loop !47

49:                                               ; preds = %33
  br label %50

50:                                               ; preds = %49, %25
  %51 = load ptr, ptr %3, align 8, !tbaa !22
  %52 = getelementptr inbounds nuw %struct.ChorusContext, ptr %51, i32 0, i32 12
  call void @av_freep(ptr noundef %52)
  %53 = load ptr, ptr %3, align 8, !tbaa !22
  %54 = getelementptr inbounds nuw %struct.ChorusContext, ptr %53, i32 0, i32 15
  call void @av_freep(ptr noundef %54)
  %55 = load ptr, ptr %3, align 8, !tbaa !22
  %56 = getelementptr inbounds nuw %struct.ChorusContext, ptr %55, i32 0, i32 13
  call void @av_freep(ptr noundef %56)
  %57 = load ptr, ptr %3, align 8, !tbaa !22
  %58 = getelementptr inbounds nuw %struct.ChorusContext, ptr %57, i32 0, i32 14
  %59 = load ptr, ptr %58, align 8, !tbaa !42
  %60 = icmp ne ptr %59, null
  br i1 %60, label %61, label %79

61:                                               ; preds = %50
  store i32 0, ptr %4, align 4, !tbaa !36
  br label %62

62:                                               ; preds = %75, %61
  %63 = load i32, ptr %4, align 4, !tbaa !36
  %64 = load ptr, ptr %3, align 8, !tbaa !22
  %65 = getelementptr inbounds nuw %struct.ChorusContext, ptr %64, i32 0, i32 16
  %66 = load i32, ptr %65, align 8, !tbaa !40
  %67 = icmp slt i32 %63, %66
  br i1 %67, label %68, label %78

68:                                               ; preds = %62
  %69 = load ptr, ptr %3, align 8, !tbaa !22
  %70 = getelementptr inbounds nuw %struct.ChorusContext, ptr %69, i32 0, i32 14
  %71 = load ptr, ptr %70, align 8, !tbaa !42
  %72 = load i32, ptr %4, align 4, !tbaa !36
  %73 = sext i32 %72 to i64
  %74 = getelementptr inbounds ptr, ptr %71, i64 %73
  call void @av_freep(ptr noundef %74)
  br label %75

75:                                               ; preds = %68
  %76 = load i32, ptr %4, align 4, !tbaa !36
  %77 = add nsw i32 %76, 1
  store i32 %77, ptr %4, align 4, !tbaa !36
  br label %62, !llvm.loop !49

78:                                               ; preds = %62
  br label %79

79:                                               ; preds = %78, %50
  %80 = load ptr, ptr %3, align 8, !tbaa !22
  %81 = getelementptr inbounds nuw %struct.ChorusContext, ptr %80, i32 0, i32 14
  call void @av_freep(ptr noundef %81)
  call void @llvm.lifetime.end.p0(i64 4, ptr %4) #7
  call void @llvm.lifetime.end.p0(i64 8, ptr %3) #7
  ret void
}