; Function Attrs: cold nounwind optsize uwtable
define internal void @uninit(ptr noundef readonly captures(none) %0) #0 {
  %2 = getelementptr inbounds nuw i8, ptr %0, i64 72
  %3 = load ptr, ptr %2, align 8, !tbaa !4
  %4 = getelementptr inbounds nuw i8, ptr %3, i64 48
  tail call void @av_freep(ptr noundef nonnull %4) #8
  %5 = getelementptr inbounds nuw i8, ptr %3, i64 56
  tail call void @av_freep(ptr noundef nonnull %5) #8
  %6 = getelementptr inbounds nuw i8, ptr %3, i64 64
  tail call void @av_freep(ptr noundef nonnull %6) #8
  %7 = getelementptr inbounds nuw i8, ptr %3, i64 72
  tail call void @av_freep(ptr noundef nonnull %7) #8
  %8 = getelementptr inbounds nuw i8, ptr %3, i64 80
  %9 = load ptr, ptr %8, align 8, !tbaa !43
  %.not = icmp eq ptr %9, null
  br i1 %.not, label %11, label %10

10:                                               ; preds = %1
  tail call void @av_freep(ptr noundef nonnull %9) #8
  br label %11

11:                                               ; preds = %10, %1
  tail call void @av_freep(ptr noundef nonnull %8) #8
  %12 = getelementptr inbounds nuw i8, ptr %3, i64 88
  %13 = load ptr, ptr %12, align 8, !tbaa !44
  %.not24 = icmp eq ptr %13, null
  br i1 %.not24, label %.loopexit27, label %.preheader26

.preheader26:                                     ; preds = %11
  %14 = getelementptr inbounds nuw i8, ptr %3, i64 128
  %15 = load i32, ptr %14, align 8, !tbaa !45
  %16 = icmp sgt i32 %15, 0
  br i1 %16, label %.lr.ph, label %.loopexit27

.lr.ph:                                           ; preds = %.preheader26, %.lr.ph
  %indvars.iv = phi i64 [ %indvars.iv.next, %.lr.ph ], [ 0, %.preheader26 ]
  %17 = load ptr, ptr %12, align 8, !tbaa !44
  %18 = getelementptr inbounds nuw ptr, ptr %17, i64 %indvars.iv
  tail call void @av_freep(ptr noundef %18) #8
  %indvars.iv.next = add nuw nsw i64 %indvars.iv, 1
  %19 = load i32, ptr %14, align 8, !tbaa !45
  %20 = sext i32 %19 to i64
  %21 = icmp slt i64 %indvars.iv.next, %20
  br i1 %21, label %.lr.ph, label %.loopexit27, !llvm.loop !46

.loopexit27:                                      ; preds = %.lr.ph, %.preheader26, %11
  tail call void @av_freep(ptr noundef nonnull %12) #8
  %22 = getelementptr inbounds nuw i8, ptr %3, i64 112
  tail call void @av_freep(ptr noundef nonnull %22) #8
  %23 = getelementptr inbounds nuw i8, ptr %3, i64 96
  tail call void @av_freep(ptr noundef nonnull %23) #8
  %24 = getelementptr inbounds nuw i8, ptr %3, i64 104
  %25 = load ptr, ptr %24, align 8, !tbaa !41
  %.not25 = icmp eq ptr %25, null
  br i1 %.not25, label %.loopexit, label %.preheader

.preheader:                                       ; preds = %.loopexit27
  %26 = getelementptr inbounds nuw i8, ptr %3, i64 120
  %27 = load i32, ptr %26, align 8, !tbaa !39
  %28 = icmp sgt i32 %27, 0
  br i1 %28, label %.lr.ph30, label %.loopexit

.lr.ph30:                                         ; preds = %.preheader, %.lr.ph30
  %indvars.iv32 = phi i64 [ %indvars.iv.next33, %.lr.ph30 ], [ 0, %.preheader ]
  %29 = load ptr, ptr %24, align 8, !tbaa !41
  %30 = getelementptr inbounds nuw ptr, ptr %29, i64 %indvars.iv32
  tail call void @av_freep(ptr noundef %30) #8
  %indvars.iv.next33 = add nuw nsw i64 %indvars.iv32, 1
  %31 = load i32, ptr %26, align 8, !tbaa !39
  %32 = sext i32 %31 to i64
  %33 = icmp slt i64 %indvars.iv.next33, %32
  br i1 %33, label %.lr.ph30, label %.loopexit, !llvm.loop !47

.loopexit:                                        ; preds = %.lr.ph30, %.preheader, %.loopexit27
  tail call void @av_freep(ptr noundef nonnull %24) #8
  ret void
}